target datalayout = "e-m:e-p270:32:32-p271:32:32-p272:64:64-i64:64-i128:128-f80:128-n8:16:32:64-S128"
target triple = "x86_64-pc-linux-gnu"

%struct.redisOptions = type { i32, i32, ptr, ptr, %union.anon, ptr, ptr, ptr, ptr }
%union.anon = type { %struct.anon.1 }
%struct.anon.1 = type { ptr, ptr, i32 }

; Function Attrs: nounwind uwtable
define ptr @redisConnectFd(i32 noundef %0) #0 {
  %2 = alloca i32, align 4
  %3 = alloca %struct.redisOptions, align 8
  store i32 %0, ptr %2, align 4, !tbaa !29
  call void @llvm.lifetime.start.p0(i64 80, ptr %3) #10
  call void @llvm.memset.p0.i64(ptr align 8 %3, i8 0, i64 80, i1 false)
  %4 = getelementptr inbounds nuw %struct.redisOptions, ptr %3, i32 0, i32 0
  store i32 2, ptr %4, align 8, !tbaa !76
  %5 = load i32, ptr %2, align 4, !tbaa !29
  %6 = getelementptr inbounds nuw %struct.redisOptions, ptr %3, i32 0, i32 4
  store i32 %5, ptr %6, align 8, !tbaa !30
  %7 = call ptr @redisConnectWithOptions(ptr noundef %3)
  call void @llvm.lifetime.end.p0(i64 80, ptr %3) #10
  ret ptr %7
}